
part1.elf:     file format elf32-avr

Sections:
Idx Name          Size      VMA       LMA       File off  Algn
  0 .data         00000004  00800100  000002ac  00000340  2**0
                  CONTENTS, ALLOC, LOAD, DATA
  1 .text         000002ac  00000000  00000000  00000094  2**1
                  CONTENTS, ALLOC, LOAD, READONLY, CODE
  2 .bss          00000005  00800104  00800104  00000344  2**0
                  ALLOC
  3 .comment      00000030  00000000  00000000  00000344  2**0
                  CONTENTS, READONLY
  4 .note.gnu.avr.deviceinfo 00000040  00000000  00000000  00000374  2**2
                  CONTENTS, READONLY
  5 .debug_aranges 00000088  00000000  00000000  000003b4  2**0
                  CONTENTS, READONLY, DEBUGGING
  6 .debug_info   00000b6a  00000000  00000000  0000043c  2**0
                  CONTENTS, READONLY, DEBUGGING
  7 .debug_abbrev 000008f5  00000000  00000000  00000fa6  2**0
                  CONTENTS, READONLY, DEBUGGING
  8 .debug_line   000004e8  00000000  00000000  0000189b  2**0
                  CONTENTS, READONLY, DEBUGGING
  9 .debug_frame  0000011c  00000000  00000000  00001d84  2**2
                  CONTENTS, READONLY, DEBUGGING
 10 .debug_str    000004c0  00000000  00000000  00001ea0  2**0
                  CONTENTS, READONLY, DEBUGGING
 11 .debug_loc    0000026c  00000000  00000000  00002360  2**0
                  CONTENTS, READONLY, DEBUGGING
 12 .debug_ranges 00000090  00000000  00000000  000025cc  2**0
                  CONTENTS, READONLY, DEBUGGING

Disassembly of section .text:

00000000 <__vectors>:
   0:	45 c0       	rjmp	.+138    	; 0x8c <__ctors_end>
   2:	00 00       	nop
   4:	60 c0       	rjmp	.+192    	; 0xc6 <__bad_interrupt>
   6:	00 00       	nop
   8:	5e c0       	rjmp	.+188    	; 0xc6 <__bad_interrupt>
   a:	00 00       	nop
   c:	5c c0       	rjmp	.+184    	; 0xc6 <__bad_interrupt>
   e:	00 00       	nop
  10:	5a c0       	rjmp	.+180    	; 0xc6 <__bad_interrupt>
  12:	00 00       	nop
  14:	58 c0       	rjmp	.+176    	; 0xc6 <__bad_interrupt>
  16:	00 00       	nop
  18:	56 c0       	rjmp	.+172    	; 0xc6 <__bad_interrupt>
  1a:	00 00       	nop
  1c:	54 c0       	rjmp	.+168    	; 0xc6 <__bad_interrupt>
  1e:	00 00       	nop
  20:	52 c0       	rjmp	.+164    	; 0xc6 <__bad_interrupt>
  22:	00 00       	nop
  24:	50 c0       	rjmp	.+160    	; 0xc6 <__bad_interrupt>
  26:	00 00       	nop
  28:	4e c0       	rjmp	.+156    	; 0xc6 <__bad_interrupt>
  2a:	00 00       	nop
  2c:	4c c0       	rjmp	.+152    	; 0xc6 <__bad_interrupt>
  2e:	00 00       	nop
  30:	4a c0       	rjmp	.+148    	; 0xc6 <__bad_interrupt>
  32:	00 00       	nop
  34:	ca c0       	rjmp	.+404    	; 0x1ca <__vector_13>
  36:	00 00       	nop
  38:	46 c0       	rjmp	.+140    	; 0xc6 <__bad_interrupt>
  3a:	00 00       	nop
  3c:	44 c0       	rjmp	.+136    	; 0xc6 <__bad_interrupt>
  3e:	00 00       	nop
  40:	42 c0       	rjmp	.+132    	; 0xc6 <__bad_interrupt>
  42:	00 00       	nop
  44:	40 c0       	rjmp	.+128    	; 0xc6 <__bad_interrupt>
  46:	00 00       	nop
  48:	3e c0       	rjmp	.+124    	; 0xc6 <__bad_interrupt>
  4a:	00 00       	nop
  4c:	3c c0       	rjmp	.+120    	; 0xc6 <__bad_interrupt>
  4e:	00 00       	nop
  50:	3a c0       	rjmp	.+116    	; 0xc6 <__bad_interrupt>
  52:	00 00       	nop
  54:	38 c0       	rjmp	.+112    	; 0xc6 <__bad_interrupt>
  56:	00 00       	nop
  58:	36 c0       	rjmp	.+108    	; 0xc6 <__bad_interrupt>
  5a:	00 00       	nop
  5c:	34 c0       	rjmp	.+104    	; 0xc6 <__bad_interrupt>
  5e:	00 00       	nop
  60:	32 c0       	rjmp	.+100    	; 0xc6 <__bad_interrupt>
  62:	00 00       	nop
  64:	30 c0       	rjmp	.+96     	; 0xc6 <__bad_interrupt>
  66:	00 00       	nop
  68:	2e c0       	rjmp	.+92     	; 0xc6 <__bad_interrupt>
  6a:	00 00       	nop
  6c:	2c c0       	rjmp	.+88     	; 0xc6 <__bad_interrupt>
  6e:	00 00       	nop
  70:	2a c0       	rjmp	.+84     	; 0xc6 <__bad_interrupt>
  72:	00 00       	nop
  74:	28 c0       	rjmp	.+80     	; 0xc6 <__bad_interrupt>
  76:	00 00       	nop
  78:	26 c0       	rjmp	.+76     	; 0xc6 <__bad_interrupt>
  7a:	00 00       	nop
  7c:	24 c0       	rjmp	.+72     	; 0xc6 <__bad_interrupt>
  7e:	00 00       	nop
  80:	22 c0       	rjmp	.+68     	; 0xc6 <__bad_interrupt>
  82:	00 00       	nop
  84:	20 c0       	rjmp	.+64     	; 0xc6 <__bad_interrupt>
  86:	00 00       	nop
  88:	1e c0       	rjmp	.+60     	; 0xc6 <__bad_interrupt>
	...

0000008c <__ctors_end>:
  8c:	11 24       	eor	r1, r1
  8e:	1f be       	out	0x3f, r1	; 63
  90:	cf ef       	ldi	r28, 0xFF	; 255
  92:	d0 e4       	ldi	r29, 0x40	; 64
  94:	de bf       	out	0x3e, r29	; 62
  96:	cd bf       	out	0x3d, r28	; 61

00000098 <__do_copy_data>:
  98:	11 e0       	ldi	r17, 0x01	; 1
  9a:	a0 e0       	ldi	r26, 0x00	; 0
  9c:	b1 e0       	ldi	r27, 0x01	; 1
  9e:	ec ea       	ldi	r30, 0xAC	; 172
  a0:	f2 e0       	ldi	r31, 0x02	; 2
  a2:	00 e0       	ldi	r16, 0x00	; 0
  a4:	0b bf       	out	0x3b, r16	; 59
  a6:	02 c0       	rjmp	.+4      	; 0xac <__do_copy_data+0x14>
  a8:	07 90       	elpm	r0, Z+
  aa:	0d 92       	st	X+, r0
  ac:	a4 30       	cpi	r26, 0x04	; 4
  ae:	b1 07       	cpc	r27, r17
  b0:	d9 f7       	brne	.-10     	; 0xa8 <__do_copy_data+0x10>

000000b2 <__do_clear_bss>:
  b2:	21 e0       	ldi	r18, 0x01	; 1
  b4:	a4 e0       	ldi	r26, 0x04	; 4
  b6:	b1 e0       	ldi	r27, 0x01	; 1
  b8:	01 c0       	rjmp	.+2      	; 0xbc <.do_clear_bss_start>

000000ba <.do_clear_bss_loop>:
  ba:	1d 92       	st	X+, r1

000000bc <.do_clear_bss_start>:
  bc:	a9 30       	cpi	r26, 0x09	; 9
  be:	b2 07       	cpc	r27, r18
  c0:	e1 f7       	brne	.-8      	; 0xba <.do_clear_bss_loop>
  c2:	cc d0       	rcall	.+408    	; 0x25c <main>
  c4:	f1 c0       	rjmp	.+482    	; 0x2a8 <_exit>

000000c6 <__bad_interrupt>:
  c6:	9c cf       	rjmp	.-200    	; 0x0 <__vectors>

000000c8 <initUSART>:
void TimerOff() {
	TCCR1B 	= 0x00; // bit3bit2bit1bit0=0000: timer off
}

void TimerISR() {
	TimerFlag = 1;
  c8:	81 30       	cpi	r24, 0x01	; 1
  ca:	81 f0       	breq	.+32     	; 0xec <initUSART+0x24>
  cc:	e1 ec       	ldi	r30, 0xC1	; 193
  ce:	f0 e0       	ldi	r31, 0x00	; 0
  d0:	80 81       	ld	r24, Z
  d2:	88 61       	ori	r24, 0x18	; 24
  d4:	80 83       	st	Z, r24
  d6:	e2 ec       	ldi	r30, 0xC2	; 194
  d8:	f0 e0       	ldi	r31, 0x00	; 0
  da:	80 81       	ld	r24, Z
  dc:	86 60       	ori	r24, 0x06	; 6
  de:	80 83       	st	Z, r24
  e0:	83 e3       	ldi	r24, 0x33	; 51
  e2:	80 93 c4 00 	sts	0x00C4, r24	; 0x8000c4 <__TEXT_REGION_LENGTH__+0x7e00c4>
  e6:	10 92 c5 00 	sts	0x00C5, r1	; 0x8000c5 <__TEXT_REGION_LENGTH__+0x7e00c5>
  ea:	08 95       	ret
  ec:	e9 ec       	ldi	r30, 0xC9	; 201
  ee:	f0 e0       	ldi	r31, 0x00	; 0
  f0:	80 81       	ld	r24, Z
  f2:	88 61       	ori	r24, 0x18	; 24
  f4:	80 83       	st	Z, r24
  f6:	ea ec       	ldi	r30, 0xCA	; 202
  f8:	f0 e0       	ldi	r31, 0x00	; 0
  fa:	80 81       	ld	r24, Z
  fc:	86 60       	ori	r24, 0x06	; 6
  fe:	80 83       	st	Z, r24
 100:	83 e3       	ldi	r24, 0x33	; 51
 102:	80 93 cc 00 	sts	0x00CC, r24	; 0x8000cc <__TEXT_REGION_LENGTH__+0x7e00cc>
 106:	10 92 cd 00 	sts	0x00CD, r1	; 0x8000cd <__TEXT_REGION_LENGTH__+0x7e00cd>
 10a:	08 95       	ret

0000010c <USART_HasTransmitted>:
 10c:	81 30       	cpi	r24, 0x01	; 1
 10e:	21 f0       	breq	.+8      	; 0x118 <USART_HasTransmitted+0xc>
 110:	80 91 c0 00 	lds	r24, 0x00C0	; 0x8000c0 <__TEXT_REGION_LENGTH__+0x7e00c0>
 114:	80 74       	andi	r24, 0x40	; 64
 116:	08 95       	ret
 118:	80 91 c8 00 	lds	r24, 0x00C8	; 0x8000c8 <__TEXT_REGION_LENGTH__+0x7e00c8>
 11c:	80 74       	andi	r24, 0x40	; 64
 11e:	08 95       	ret

00000120 <USART_Flush>:
 120:	81 30       	cpi	r24, 0x01	; 1
 122:	31 f0       	breq	.+12     	; 0x130 <USART_Flush+0x10>
 124:	e0 ec       	ldi	r30, 0xC0	; 192
 126:	f0 e0       	ldi	r31, 0x00	; 0
 128:	80 81       	ld	r24, Z
 12a:	88 23       	and	r24, r24
 12c:	ec f3       	brlt	.-6      	; 0x128 <USART_Flush+0x8>
 12e:	08 95       	ret
 130:	e8 ec       	ldi	r30, 0xC8	; 200
 132:	f0 e0       	ldi	r31, 0x00	; 0
 134:	80 81       	ld	r24, Z
 136:	88 23       	and	r24, r24
 138:	ec f3       	brlt	.-6      	; 0x134 <USART_Flush+0x14>
 13a:	08 95       	ret

0000013c <USART_Send>:
 13c:	61 30       	cpi	r22, 0x01	; 1
 13e:	41 f0       	breq	.+16     	; 0x150 <USART_Send+0x14>
 140:	e0 ec       	ldi	r30, 0xC0	; 192
 142:	f0 e0       	ldi	r31, 0x00	; 0
 144:	90 81       	ld	r25, Z
 146:	95 ff       	sbrs	r25, 5
 148:	fd cf       	rjmp	.-6      	; 0x144 <USART_Send+0x8>
 14a:	80 93 c6 00 	sts	0x00C6, r24	; 0x8000c6 <__TEXT_REGION_LENGTH__+0x7e00c6>
 14e:	08 95       	ret
 150:	e8 ec       	ldi	r30, 0xC8	; 200
 152:	f0 e0       	ldi	r31, 0x00	; 0
 154:	90 81       	ld	r25, Z
 156:	95 ff       	sbrs	r25, 5
 158:	fd cf       	rjmp	.-6      	; 0x154 <USART_Send+0x18>
 15a:	80 93 ce 00 	sts	0x00CE, r24	; 0x8000ce <__TEXT_REGION_LENGTH__+0x7e00ce>
 15e:	08 95       	ret

00000160 <TimerSet>:
 160:	60 93 00 01 	sts	0x0100, r22	; 0x800100 <__data_start>
 164:	70 93 01 01 	sts	0x0101, r23	; 0x800101 <__data_start+0x1>
 168:	80 93 02 01 	sts	0x0102, r24	; 0x800102 <__data_start+0x2>
 16c:	90 93 03 01 	sts	0x0103, r25	; 0x800103 <__data_start+0x3>
 170:	60 93 04 01 	sts	0x0104, r22	; 0x800104 <__data_end>
 174:	70 93 05 01 	sts	0x0105, r23	; 0x800105 <__data_end+0x1>
 178:	80 93 06 01 	sts	0x0106, r24	; 0x800106 <__data_end+0x2>
 17c:	90 93 07 01 	sts	0x0107, r25	; 0x800107 <__data_end+0x3>
 180:	08 95       	ret

00000182 <TimerOn>:
 182:	8b e0       	ldi	r24, 0x0B	; 11
 184:	80 93 81 00 	sts	0x0081, r24	; 0x800081 <__TEXT_REGION_LENGTH__+0x7e0081>
 188:	8d e7       	ldi	r24, 0x7D	; 125
 18a:	90 e0       	ldi	r25, 0x00	; 0
 18c:	90 93 89 00 	sts	0x0089, r25	; 0x800089 <__TEXT_REGION_LENGTH__+0x7e0089>
 190:	80 93 88 00 	sts	0x0088, r24	; 0x800088 <__TEXT_REGION_LENGTH__+0x7e0088>
 194:	82 e0       	ldi	r24, 0x02	; 2
 196:	80 93 6f 00 	sts	0x006F, r24	; 0x80006f <__TEXT_REGION_LENGTH__+0x7e006f>
 19a:	10 92 85 00 	sts	0x0085, r1	; 0x800085 <__TEXT_REGION_LENGTH__+0x7e0085>
 19e:	10 92 84 00 	sts	0x0084, r1	; 0x800084 <__TEXT_REGION_LENGTH__+0x7e0084>
 1a2:	80 91 00 01 	lds	r24, 0x0100	; 0x800100 <__data_start>
 1a6:	90 91 01 01 	lds	r25, 0x0101	; 0x800101 <__data_start+0x1>
 1aa:	a0 91 02 01 	lds	r26, 0x0102	; 0x800102 <__data_start+0x2>
 1ae:	b0 91 03 01 	lds	r27, 0x0103	; 0x800103 <__data_start+0x3>
 1b2:	80 93 04 01 	sts	0x0104, r24	; 0x800104 <__data_end>
 1b6:	90 93 05 01 	sts	0x0105, r25	; 0x800105 <__data_end+0x1>
 1ba:	a0 93 06 01 	sts	0x0106, r26	; 0x800106 <__data_end+0x2>
 1be:	b0 93 07 01 	sts	0x0107, r27	; 0x800107 <__data_end+0x3>
 1c2:	8f b7       	in	r24, 0x3f	; 63
 1c4:	80 68       	ori	r24, 0x80	; 128
 1c6:	8f bf       	out	0x3f, r24	; 63
 1c8:	08 95       	ret

000001ca <__vector_13>:
}

// In our approach, the C programmer does not touch this ISR, but rather TimerISR()
ISR(TIMER1_COMPA_vect)
{
 1ca:	1f 92       	push	r1
 1cc:	0f 92       	push	r0
 1ce:	0f b6       	in	r0, 0x3f	; 63
 1d0:	0f 92       	push	r0
 1d2:	11 24       	eor	r1, r1
 1d4:	8f 93       	push	r24
 1d6:	9f 93       	push	r25
 1d8:	af 93       	push	r26
 1da:	bf 93       	push	r27
	// CPU automatically calls when TCNT0 == OCR0 (every 1 ms per TimerOn settings)
	_avr_timer_cntcurr--; 			// Count down to 0 rather than up to TOP
 1dc:	80 91 04 01 	lds	r24, 0x0104	; 0x800104 <__data_end>
 1e0:	90 91 05 01 	lds	r25, 0x0105	; 0x800105 <__data_end+0x1>
 1e4:	a0 91 06 01 	lds	r26, 0x0106	; 0x800106 <__data_end+0x2>
 1e8:	b0 91 07 01 	lds	r27, 0x0107	; 0x800107 <__data_end+0x3>
 1ec:	01 97       	sbiw	r24, 0x01	; 1
 1ee:	a1 09       	sbc	r26, r1
 1f0:	b1 09       	sbc	r27, r1
 1f2:	80 93 04 01 	sts	0x0104, r24	; 0x800104 <__data_end>
 1f6:	90 93 05 01 	sts	0x0105, r25	; 0x800105 <__data_end+0x1>
 1fa:	a0 93 06 01 	sts	0x0106, r26	; 0x800106 <__data_end+0x2>
 1fe:	b0 93 07 01 	sts	0x0107, r27	; 0x800107 <__data_end+0x3>
	if (_avr_timer_cntcurr == 0) { 	// results in a more efficient compare
 202:	89 2b       	or	r24, r25
 204:	8a 2b       	or	r24, r26
 206:	8b 2b       	or	r24, r27
 208:	99 f4       	brne	.+38     	; 0x230 <__vector_13+0x66>
void TimerOff() {
	TCCR1B 	= 0x00; // bit3bit2bit1bit0=0000: timer off
}

void TimerISR() {
	TimerFlag = 1;
 20a:	81 e0       	ldi	r24, 0x01	; 1
 20c:	80 93 08 01 	sts	0x0108, r24	; 0x800108 <TimerFlag>
{
	// CPU automatically calls when TCNT0 == OCR0 (every 1 ms per TimerOn settings)
	_avr_timer_cntcurr--; 			// Count down to 0 rather than up to TOP
	if (_avr_timer_cntcurr == 0) { 	// results in a more efficient compare
		TimerISR(); 				// Call the ISR that the user uses
		_avr_timer_cntcurr = _avr_timer_M;
 210:	80 91 00 01 	lds	r24, 0x0100	; 0x800100 <__data_start>
 214:	90 91 01 01 	lds	r25, 0x0101	; 0x800101 <__data_start+0x1>
 218:	a0 91 02 01 	lds	r26, 0x0102	; 0x800102 <__data_start+0x2>
 21c:	b0 91 03 01 	lds	r27, 0x0103	; 0x800103 <__data_start+0x3>
 220:	80 93 04 01 	sts	0x0104, r24	; 0x800104 <__data_end>
 224:	90 93 05 01 	sts	0x0105, r25	; 0x800105 <__data_end+0x1>
 228:	a0 93 06 01 	sts	0x0106, r26	; 0x800106 <__data_end+0x2>
 22c:	b0 93 07 01 	sts	0x0107, r27	; 0x800107 <__data_end+0x3>
	}
}
 230:	bf 91       	pop	r27
 232:	af 91       	pop	r26
 234:	9f 91       	pop	r25
 236:	8f 91       	pop	r24
 238:	0f 90       	pop	r0
 23a:	0f be       	out	0x3f, r0	; 63
 23c:	0f 90       	pop	r0
 23e:	1f 90       	pop	r1
 240:	18 95       	reti

00000242 <transmitUSART>:
		TimerFlag = 0;
	}
	return 1;
}

void transmitUSART(unsigned char targetUSART, unsigned char data){
 242:	cf 93       	push	r28
 244:	c8 2f       	mov	r28, r24
 246:	86 2f       	mov	r24, r22
	USART_Send(data, targetUSART);//Send data
 248:	6c 2f       	mov	r22, r28
 24a:	78 df       	rcall	.-272    	; 0x13c <USART_Send>
	while(!USART_HasTransmitted(targetUSART));//Wait for transmission to complete
 24c:	8c 2f       	mov	r24, r28
 24e:	5e df       	rcall	.-324    	; 0x10c <USART_HasTransmitted>
 250:	88 23       	and	r24, r24
 252:	e1 f3       	breq	.-8      	; 0x24c <transmitUSART+0xa>
	USART_Flush(targetUSART);//Flushing data registers
 254:	8c 2f       	mov	r24, r28
 256:	64 df       	rcall	.-312    	; 0x120 <USART_Flush>
 258:	cf 91       	pop	r28
	return;
}
 25a:	08 95       	ret

0000025c <main>:
 25c:	8f ef       	ldi	r24, 0xFF	; 255

void transmitUSART(unsigned char targetUSART, unsigned char data);

//Leader Micro Controller Code
int main(void){
	DDRA = 0xFF; PORTA = 0x00;//A OUTPUT
 25e:	81 b9       	out	0x01, r24	; 1
 260:	12 b8       	out	0x02, r1	; 2
	DDRD = 0xFF; PORTD = 0x00;//D OUTPUT
 262:	8a b9       	out	0x0a, r24	; 10
 264:	1b b8       	out	0x0b, r1	; 11

    initUSART(0);//Initialize USART 0
 266:	80 e0       	ldi	r24, 0x00	; 0
 268:	2f df       	rcall	.-418    	; 0xc8 <initUSART>
    initUSART(1);//Initialize USART 1
 26a:	81 e0       	ldi	r24, 0x01	; 1
 26c:	2d df       	rcall	.-422    	; 0xc8 <initUSART>

	TimerSet(1000);//1 second timer
 26e:	68 ee       	ldi	r22, 0xE8	; 232
 270:	73 e0       	ldi	r23, 0x03	; 3
 272:	80 e0       	ldi	r24, 0x00	; 0
 274:	90 e0       	ldi	r25, 0x00	; 0
	TimerOn();//Start timer
 276:	74 df       	rcall	.-280    	; 0x160 <TimerSet>
 278:	84 df       	rcall	.-248    	; 0x182 <TimerOn>

	uc localLED = 0;
 27a:	c0 e0       	ldi	r28, 0x00	; 0
//Functionality - checks if USART is ready to send
//Parameter: usartNum specifies which USART is checked
//Returns: 1 if true else 0
unsigned char USART_IsSendReady(unsigned char usartNum)
{
	return (usartNum != 1) ? (UCSR0A & (1 << UDRE0)) : (UCSR1A & (1 << UDRE1));
 27c:	00 ec       	ldi	r16, 0xC0	; 192
 27e:	10 e0       	ldi	r17, 0x00	; 0

		if(USART_IsSendReady(targetUSART)){//Checks if USART is ready for to transmit
			transmitUSART(targetUSART, localLED);//Transmit data
		}

		localLED = (localLED == 0) ? 1 : 0;//Flip LED On/Off
 280:	d1 e0       	ldi	r29, 0x01	; 1
	TimerOn();//Start timer

	uc localLED = 0;
	uc targetUSART = 0;
	while(1){
		PORTA = localLED;//Set local LED On/Off
 282:	c2 b9       	out	0x02, r28	; 2
 284:	f8 01       	movw	r30, r16
 286:	80 81       	ld	r24, Z

		if(USART_IsSendReady(targetUSART)){//Checks if USART is ready for to transmit
 288:	85 ff       	sbrs	r24, 5
			transmitUSART(targetUSART, localLED);//Transmit data
 28a:	03 c0       	rjmp	.+6      	; 0x292 <main+0x36>
 28c:	6c 2f       	mov	r22, r28
 28e:	80 e0       	ldi	r24, 0x00	; 0
 290:	d8 df       	rcall	.-80     	; 0x242 <transmitUSART>
		}

		localLED = (localLED == 0) ? 1 : 0;//Flip LED On/Off
 292:	8d 2f       	mov	r24, r29
 294:	c1 11       	cpse	r28, r1
 296:	80 e0       	ldi	r24, 0x00	; 0
 298:	c8 2f       	mov	r28, r24
		while(!TimerFlag);
 29a:	80 91 08 01 	lds	r24, 0x0108	; 0x800108 <TimerFlag>
 29e:	88 23       	and	r24, r24
 2a0:	e1 f3       	breq	.-8      	; 0x29a <main+0x3e>
		TimerFlag = 0;
 2a2:	10 92 08 01 	sts	0x0108, r1	; 0x800108 <TimerFlag>
	}
 2a6:	ed cf       	rjmp	.-38     	; 0x282 <main+0x26>

000002a8 <_exit>:
 2a8:	f8 94       	cli

000002aa <__stop_program>:
 2aa:	ff cf       	rjmp	.-2      	; 0x2aa <__stop_program>
